(lp0
S'poi'
p1
aS'to_poi_ratio'
p2
aS'from_poi_to_this_person'
p3
aS'shared_receipt_with_poi'
p4
aS'restricted_stock_deferred'
p5
aS'expenses'
p6
aS'deferral_payments'
p7
aS'from_poi_ratio'
p8
aS'salary'
p9
aS'to_messages'
p10
aS'total_payments'
p11
aS'exercised_stock_options'
p12
aS'bonus'
p13
a.