(lp0
S'poi'
p1
aS'loan_advances'
p2
aS'deferral_payments'
p3
aS'total_payments'
p4
aS'exercised_stock_options'
p5
aS'bonus'
p6
aS'restricted_stock'
p7
aS'total_stock_value'
p8
aS'other'
p9
aS'from_this_person_to_poi'
p10
aS'deferred_income'
p11
aS'long_term_incentive'
p12
aS'from_poi_ratio'
p13
aS'to_poi_ratio'
p14
a.